
exception.elf:     file format elf32-littlearm

Disassembly of section .text:

30000000 <_start>:
30000000:	ea000001 	b	3000000c <reset>
30000004:	e51ff004 	ldr	pc, [pc, #-4]	; 30000008 <und_addr>

30000008 <und_addr>:
30000008:	30000088 	andcc	r0, r0, r8, lsl #1

3000000c <reset>:
3000000c:	e3a00313 	mov	r0, #1275068416	; 0x4c000000
30000010:	e3e01000 	mvn	r1, #0	; 0x0
30000014:	e5801000 	str	r1, [r0]
30000018:	e59f0080 	ldr	r0, [pc, #128]	; 300000a0 <.text+0xa0>
3000001c:	e3a01005 	mov	r1, #5	; 0x5
30000020:	e5801000 	str	r1, [r0]
30000024:	ee110f10 	mrc	15, 0, r0, cr1, cr0, {0}
30000028:	e3800103 	orr	r0, r0, #-1073741824	; 0xc0000000
3000002c:	ee010f10 	mcr	15, 0, r0, cr1, cr0, {0}
30000030:	e59f006c 	ldr	r0, [pc, #108]	; 300000a4 <.text+0xa4>
30000034:	e59f106c 	ldr	r1, [pc, #108]	; 300000a8 <.text+0xa8>
30000038:	e5801000 	str	r1, [r0]
3000003c:	e3a00453 	mov	r0, #1392508928	; 0x53000000
30000040:	e3a01000 	mov	r1, #0	; 0x0
30000044:	e5801000 	str	r1, [r0]
30000048:	e3a01000 	mov	r1, #0	; 0x0
3000004c:	e5910000 	ldr	r0, [r1]
30000050:	e5811000 	str	r1, [r1]
30000054:	e5912000 	ldr	r2, [r1]
30000058:	e1510002 	cmp	r1, r2
3000005c:	e59fd048 	ldr	sp, [pc, #72]	; 300000ac <.text+0xac>
30000060:	03a0da01 	moveq	sp, #4096	; 0x1000
30000064:	05810000 	streq	r0, [r1]
30000068:	eb000085 	bl	30000284 <sdram_init>
3000006c:	eb0000a7 	bl	30000310 <relocate>
30000070:	eb0000c4 	bl	30000388 <clear_bss>
30000074:	e59ff034 	ldr	pc, [pc, #52]	; 300000b0 <.text+0xb0>

30000078 <sdram>:
30000078:	eb0000da 	bl	300003e8 <uart_init>

3000007c <bad_code>:
3000007c:	eeadc0de 	mcr	0, 5, ip, cr13, cr14, {6}
30000080:	e59ff02c 	ldr	pc, [pc, #44]	; 300000b4 <.text+0xb4>

30000084 <halt>:
30000084:	eafffffe 	b	30000084 <halt>

30000088 <do_und>:
30000088:	e59fd028 	ldr	sp, [pc, #40]	; 300000b8 <.text+0xb8>
3000008c:	e92d5fff 	stmdb	sp!, {r0, r1, r2, r3, r4, r5, r6, r7, r8, r9, sl, fp, ip, lr}
30000090:	e24e0004 	sub	r0, lr, #4	; 0x4
30000094:	e5901000 	ldr	r1, [r0]
30000098:	eb000007 	bl	300000bc <und_func>
3000009c:	e8fd9fff 	ldmia	sp!, {r0, r1, r2, r3, r4, r5, r6, r7, r8, r9, sl, fp, ip, pc}^
300000a0:	4c000014 	stcmi	0, cr0, [r0], {20}
300000a4:	4c000004 	stcmi	0, cr0, [r0], {4}
300000a8:	0005c011 	andeq	ip, r5, r1, lsl r0
300000ac:	40001000 	andmi	r1, r0, r0
300000b0:	30000078 	andcc	r0, r0, r8, ror r0
300000b4:	300006dc 	ldrccd	r0, [r0], -ip
300000b8:	33d00000 	bicccs	r0, r0, #0	; 0x0

300000bc <und_func>:
300000bc:	e1a0c00d 	mov	ip, sp
300000c0:	e92dd800 	stmdb	sp!, {fp, ip, lr, pc}
300000c4:	e24cb004 	sub	fp, ip, #4	; 0x4
300000c8:	e24dd008 	sub	sp, sp, #8	; 0x8
300000cc:	e50b0010 	str	r0, [fp, #-16]
300000d0:	e50b1014 	str	r1, [fp, #-20]
300000d4:	e59f0030 	ldr	r0, [pc, #48]	; 3000010c <.text+0x10c>
300000d8:	eb000107 	bl	300004fc <puts>
300000dc:	e59f002c 	ldr	r0, [pc, #44]	; 30000110 <.text+0x110>
300000e0:	eb000105 	bl	300004fc <puts>
300000e4:	e51b0010 	ldr	r0, [fp, #-16]
300000e8:	eb000116 	bl	30000548 <hex_print>
300000ec:	e59f0020 	ldr	r0, [pc, #32]	; 30000114 <.text+0x114>
300000f0:	eb000101 	bl	300004fc <puts>
300000f4:	e51b0014 	ldr	r0, [fp, #-20]
300000f8:	eb000112 	bl	30000548 <hex_print>
300000fc:	e59f0014 	ldr	r0, [pc, #20]	; 30000118 <.text+0x118>
30000100:	eb0000fd 	bl	300004fc <puts>
30000104:	e24bd00c 	sub	sp, fp, #12	; 0xc
30000108:	e89da800 	ldmia	sp, {fp, sp, pc}
3000010c:	30000784 	andcc	r0, r0, r4, lsl #15
30000110:	3000079c 	mulcc	r0, ip, r7
30000114:	300007a8 	andcc	r0, r0, r8, lsr #15
30000118:	300007b8 	strcch	r0, [r0], -r8

3000011c <print1>:
3000011c:	e1a0c00d 	mov	ip, sp
30000120:	e92dd800 	stmdb	sp!, {fp, ip, lr, pc}
30000124:	e24cb004 	sub	fp, ip, #4	; 0x4
30000128:	e59f0004 	ldr	r0, [pc, #4]	; 30000134 <.text+0x134>
3000012c:	eb0000f2 	bl	300004fc <puts>
30000130:	e89da800 	ldmia	sp, {fp, sp, pc}
30000134:	300007d0 	ldrccd	r0, [r0], -r0

30000138 <print2>:
30000138:	e1a0c00d 	mov	ip, sp
3000013c:	e92dd800 	stmdb	sp!, {fp, ip, lr, pc}
30000140:	e24cb004 	sub	fp, ip, #4	; 0x4
30000144:	e59f0004 	ldr	r0, [pc, #4]	; 30000150 <.text+0x150>
30000148:	eb0000eb 	bl	300004fc <puts>
3000014c:	e89da800 	ldmia	sp, {fp, sp, pc}
30000150:	300007d8 	ldrccd	r0, [r0], -r8

30000154 <delay>:
30000154:	e1a0c00d 	mov	ip, sp
30000158:	e92dd800 	stmdb	sp!, {fp, ip, lr, pc}
3000015c:	e24cb004 	sub	fp, ip, #4	; 0x4
30000160:	e24dd004 	sub	sp, sp, #4	; 0x4
30000164:	e50b0010 	str	r0, [fp, #-16]
30000168:	e51b3010 	ldr	r3, [fp, #-16]
3000016c:	e2433001 	sub	r3, r3, #1	; 0x1
30000170:	e50b3010 	str	r3, [fp, #-16]
30000174:	e51b3010 	ldr	r3, [fp, #-16]
30000178:	e3730001 	cmn	r3, #1	; 0x1
3000017c:	0a000000 	beq	30000184 <delay+0x30>
30000180:	eafffff8 	b	30000168 <delay+0x14>
30000184:	e89da808 	ldmia	sp, {r3, fp, sp, pc}

30000188 <test_led>:
30000188:	e1a0c00d 	mov	ip, sp
3000018c:	e92dd800 	stmdb	sp!, {fp, ip, lr, pc}
30000190:	e24cb004 	sub	fp, ip, #4	; 0x4
30000194:	e24dd00c 	sub	sp, sp, #12	; 0xc
30000198:	e3a03000 	mov	r3, #0	; 0x0
3000019c:	e50b3010 	str	r3, [fp, #-16]
300001a0:	e3a03000 	mov	r3, #0	; 0x0
300001a4:	e50b3014 	str	r3, [fp, #-20]
300001a8:	e3a02456 	mov	r2, #1442840576	; 0x56000000
300001ac:	e2822050 	add	r2, r2, #80	; 0x50
300001b0:	e3a03456 	mov	r3, #1442840576	; 0x56000000
300001b4:	e2833050 	add	r3, r3, #80	; 0x50
300001b8:	e5933000 	ldr	r3, [r3]
300001bc:	e3c33c3f 	bic	r3, r3, #16128	; 0x3f00
300001c0:	e5823000 	str	r3, [r2]
300001c4:	e3a02456 	mov	r2, #1442840576	; 0x56000000
300001c8:	e2822050 	add	r2, r2, #80	; 0x50
300001cc:	e3a03456 	mov	r3, #1442840576	; 0x56000000
300001d0:	e2833050 	add	r3, r3, #80	; 0x50
300001d4:	e5933000 	ldr	r3, [r3]
300001d8:	e3833c15 	orr	r3, r3, #5376	; 0x1500
300001dc:	e5823000 	str	r3, [r2]
300001e0:	e51b3014 	ldr	r3, [fp, #-20]
300001e4:	e3530063 	cmp	r3, #99	; 0x63
300001e8:	ca000021 	bgt	30000274 <test_led+0xec>
300001ec:	e51b3010 	ldr	r3, [fp, #-16]
300001f0:	e1e03003 	mvn	r3, r3
300001f4:	e50b3018 	str	r3, [fp, #-24]
300001f8:	e3a02456 	mov	r2, #1442840576	; 0x56000000
300001fc:	e2822054 	add	r2, r2, #84	; 0x54
30000200:	e3a03456 	mov	r3, #1442840576	; 0x56000000
30000204:	e2833054 	add	r3, r3, #84	; 0x54
30000208:	e5933000 	ldr	r3, [r3]
3000020c:	e3c33070 	bic	r3, r3, #112	; 0x70
30000210:	e5823000 	str	r3, [r2]
30000214:	e3a01456 	mov	r1, #1442840576	; 0x56000000
30000218:	e2811054 	add	r1, r1, #84	; 0x54
3000021c:	e3a03456 	mov	r3, #1442840576	; 0x56000000
30000220:	e2833054 	add	r3, r3, #84	; 0x54
30000224:	e51b2018 	ldr	r2, [fp, #-24]
30000228:	e1a02202 	mov	r2, r2, lsl #4
3000022c:	e5933000 	ldr	r3, [r3]
30000230:	e1833002 	orr	r3, r3, r2
30000234:	e5813000 	str	r3, [r1]
30000238:	e3a00b61 	mov	r0, #99328	; 0x18400
3000023c:	e2800e2a 	add	r0, r0, #672	; 0x2a0
30000240:	ebffffc3 	bl	30000154 <delay>
30000244:	e51b3010 	ldr	r3, [fp, #-16]
30000248:	e2833001 	add	r3, r3, #1	; 0x1
3000024c:	e50b3010 	str	r3, [fp, #-16]
30000250:	e51b3010 	ldr	r3, [fp, #-16]
30000254:	e3530008 	cmp	r3, #8	; 0x8
30000258:	1a000001 	bne	30000264 <test_led+0xdc>
3000025c:	e3a03000 	mov	r3, #0	; 0x0
30000260:	e50b3010 	str	r3, [fp, #-16]
30000264:	e51b3014 	ldr	r3, [fp, #-20]
30000268:	e2833001 	add	r3, r3, #1	; 0x1
3000026c:	e50b3014 	str	r3, [fp, #-20]
30000270:	eaffffda 	b	300001e0 <test_led+0x58>
30000274:	e3a03000 	mov	r3, #0	; 0x0
30000278:	e1a00003 	mov	r0, r3
3000027c:	e24bd00c 	sub	sp, fp, #12	; 0xc
30000280:	e89da800 	ldmia	sp, {fp, sp, pc}

30000284 <sdram_init>:
30000284:	e1a0c00d 	mov	ip, sp
30000288:	e92dd800 	stmdb	sp!, {fp, ip, lr, pc}
3000028c:	e24cb004 	sub	fp, ip, #4	; 0x4
30000290:	e3a02312 	mov	r2, #1207959552	; 0x48000000
30000294:	e3a03422 	mov	r3, #570425344	; 0x22000000
30000298:	e5823000 	str	r3, [r2]
3000029c:	e3a02312 	mov	r2, #1207959552	; 0x48000000
300002a0:	e282201c 	add	r2, r2, #28	; 0x1c
300002a4:	e3a03906 	mov	r3, #98304	; 0x18000
300002a8:	e2833001 	add	r3, r3, #1	; 0x1
300002ac:	e5823000 	str	r3, [r2]
300002b0:	e3a02312 	mov	r2, #1207959552	; 0x48000000
300002b4:	e2822020 	add	r2, r2, #32	; 0x20
300002b8:	e3a03906 	mov	r3, #98304	; 0x18000
300002bc:	e2833001 	add	r3, r3, #1	; 0x1
300002c0:	e5823000 	str	r3, [r2]
300002c4:	e3a02312 	mov	r2, #1207959552	; 0x48000000
300002c8:	e2822024 	add	r2, r2, #36	; 0x24
300002cc:	e3a03721 	mov	r3, #8650752	; 0x840000
300002d0:	e2833e4f 	add	r3, r3, #1264	; 0x4f0
300002d4:	e2833005 	add	r3, r3, #5	; 0x5
300002d8:	e5823000 	str	r3, [r2]
300002dc:	e3a03312 	mov	r3, #1207959552	; 0x48000000
300002e0:	e2833028 	add	r3, r3, #40	; 0x28
300002e4:	e3a020b1 	mov	r2, #177	; 0xb1
300002e8:	e5832000 	str	r2, [r3]
300002ec:	e3a03312 	mov	r3, #1207959552	; 0x48000000
300002f0:	e283302c 	add	r3, r3, #44	; 0x2c
300002f4:	e3a02020 	mov	r2, #32	; 0x20
300002f8:	e5832000 	str	r2, [r3]
300002fc:	e3a03312 	mov	r3, #1207959552	; 0x48000000
30000300:	e2833030 	add	r3, r3, #48	; 0x30
30000304:	e3a02020 	mov	r2, #32	; 0x20
30000308:	e5832000 	str	r2, [r3]
3000030c:	e89da800 	ldmia	sp, {fp, sp, pc}

30000310 <relocate>:
30000310:	e1a0c00d 	mov	ip, sp
30000314:	e92dd800 	stmdb	sp!, {fp, ip, lr, pc}
30000318:	e24cb004 	sub	fp, ip, #4	; 0x4
3000031c:	e24dd00c 	sub	sp, sp, #12	; 0xc
30000320:	e3a03000 	mov	r3, #0	; 0x0
30000324:	e50b3010 	str	r3, [fp, #-16]
30000328:	e59f3050 	ldr	r3, [pc, #80]	; 30000380 <.text+0x380>
3000032c:	e50b3014 	str	r3, [fp, #-20]
30000330:	e59f304c 	ldr	r3, [pc, #76]	; 30000384 <.text+0x384>
30000334:	e50b3018 	str	r3, [fp, #-24]
30000338:	e51b2014 	ldr	r2, [fp, #-20]
3000033c:	e51b3018 	ldr	r3, [fp, #-24]
30000340:	e1520003 	cmp	r2, r3
30000344:	2a00000b 	bcs	30000378 <relocate+0x68>
30000348:	e24bc014 	sub	ip, fp, #20	; 0x14
3000034c:	e59c2000 	ldr	r2, [ip]
30000350:	e24b1010 	sub	r1, fp, #16	; 0x10
30000354:	e5913000 	ldr	r3, [r1]
30000358:	e5930000 	ldr	r0, [r3]
3000035c:	e2833004 	add	r3, r3, #4	; 0x4
30000360:	e5813000 	str	r3, [r1]
30000364:	e1a03002 	mov	r3, r2
30000368:	e5830000 	str	r0, [r3]
3000036c:	e2822004 	add	r2, r2, #4	; 0x4
30000370:	e58c2000 	str	r2, [ip]
30000374:	eaffffef 	b	30000338 <relocate+0x28>
30000378:	e24bd00c 	sub	sp, fp, #12	; 0xc
3000037c:	e89da800 	ldmia	sp, {fp, sp, pc}
30000380:	30000000 	andcc	r0, r0, r0
30000384:	30000810 	andcc	r0, r0, r0, lsl r8

30000388 <clear_bss>:
30000388:	e1a0c00d 	mov	ip, sp
3000038c:	e92dd800 	stmdb	sp!, {fp, ip, lr, pc}
30000390:	e24cb004 	sub	fp, ip, #4	; 0x4
30000394:	e24dd008 	sub	sp, sp, #8	; 0x8
30000398:	e59f3040 	ldr	r3, [pc, #64]	; 300003e0 <.text+0x3e0>
3000039c:	e50b3010 	str	r3, [fp, #-16]
300003a0:	e59f303c 	ldr	r3, [pc, #60]	; 300003e4 <.text+0x3e4>
300003a4:	e50b3014 	str	r3, [fp, #-20]
300003a8:	e51b2010 	ldr	r2, [fp, #-16]
300003ac:	e51b3014 	ldr	r3, [fp, #-20]
300003b0:	e1520003 	cmp	r2, r3
300003b4:	8a000007 	bhi	300003d8 <clear_bss+0x50>
300003b8:	e24b0010 	sub	r0, fp, #16	; 0x10
300003bc:	e5903000 	ldr	r3, [r0]
300003c0:	e1a01003 	mov	r1, r3
300003c4:	e3a02000 	mov	r2, #0	; 0x0
300003c8:	e5812000 	str	r2, [r1]
300003cc:	e2833004 	add	r3, r3, #4	; 0x4
300003d0:	e5803000 	str	r3, [r0]
300003d4:	eafffff3 	b	300003a8 <clear_bss+0x20>
300003d8:	e24bd00c 	sub	sp, fp, #12	; 0xc
300003dc:	e89da800 	ldmia	sp, {fp, sp, pc}
300003e0:	30000804 	andcc	r0, r0, r4, lsl #16
300003e4:	30000810 	andcc	r0, r0, r0, lsl r8

300003e8 <uart_init>:
300003e8:	e1a0c00d 	mov	ip, sp
300003ec:	e92dd800 	stmdb	sp!, {fp, ip, lr, pc}
300003f0:	e24cb004 	sub	fp, ip, #4	; 0x4
300003f4:	e3a02456 	mov	r2, #1442840576	; 0x56000000
300003f8:	e2822070 	add	r2, r2, #112	; 0x70
300003fc:	e3a03456 	mov	r3, #1442840576	; 0x56000000
30000400:	e2833070 	add	r3, r3, #112	; 0x70
30000404:	e5933000 	ldr	r3, [r3]
30000408:	e3c330f0 	bic	r3, r3, #240	; 0xf0
3000040c:	e5823000 	str	r3, [r2]
30000410:	e3a02456 	mov	r2, #1442840576	; 0x56000000
30000414:	e2822070 	add	r2, r2, #112	; 0x70
30000418:	e3a03456 	mov	r3, #1442840576	; 0x56000000
3000041c:	e2833070 	add	r3, r3, #112	; 0x70
30000420:	e5933000 	ldr	r3, [r3]
30000424:	e38330a0 	orr	r3, r3, #160	; 0xa0
30000428:	e5823000 	str	r3, [r2]
3000042c:	e3a02456 	mov	r2, #1442840576	; 0x56000000
30000430:	e2822078 	add	r2, r2, #120	; 0x78
30000434:	e3a03456 	mov	r3, #1442840576	; 0x56000000
30000438:	e2833078 	add	r3, r3, #120	; 0x78
3000043c:	e5933000 	ldr	r3, [r3]
30000440:	e3c3300c 	bic	r3, r3, #12	; 0xc
30000444:	e5823000 	str	r3, [r2]
30000448:	e3a02245 	mov	r2, #1342177284	; 0x50000004
3000044c:	e3a03005 	mov	r3, #5	; 0x5
30000450:	e5823000 	str	r3, [r2]
30000454:	e3a03205 	mov	r3, #1342177280	; 0x50000000
30000458:	e2833028 	add	r3, r3, #40	; 0x28
3000045c:	e3a0201a 	mov	r2, #26	; 0x1a
30000460:	e5832000 	str	r2, [r3]
30000464:	e3a02205 	mov	r2, #1342177280	; 0x50000000
30000468:	e3a03003 	mov	r3, #3	; 0x3
3000046c:	e5823000 	str	r3, [r2]
30000470:	e89da800 	ldmia	sp, {fp, sp, pc}

30000474 <putchar>:
30000474:	e1a0c00d 	mov	ip, sp
30000478:	e92dd800 	stmdb	sp!, {fp, ip, lr, pc}
3000047c:	e24cb004 	sub	fp, ip, #4	; 0x4
30000480:	e24dd004 	sub	sp, sp, #4	; 0x4
30000484:	e50b0010 	str	r0, [fp, #-16]
30000488:	e3a03205 	mov	r3, #1342177280	; 0x50000000
3000048c:	e2833010 	add	r3, r3, #16	; 0x10
30000490:	e5933000 	ldr	r3, [r3]
30000494:	e2033004 	and	r3, r3, #4	; 0x4
30000498:	e3530000 	cmp	r3, #0	; 0x0
3000049c:	1a000000 	bne	300004a4 <putchar+0x30>
300004a0:	eafffff8 	b	30000488 <putchar+0x14>
300004a4:	e3a03205 	mov	r3, #1342177280	; 0x50000000
300004a8:	e2833020 	add	r3, r3, #32	; 0x20
300004ac:	e51b2010 	ldr	r2, [fp, #-16]
300004b0:	e5c32000 	strb	r2, [r3]
300004b4:	e1a00003 	mov	r0, r3
300004b8:	e89da808 	ldmia	sp, {r3, fp, sp, pc}

300004bc <getchar>:
300004bc:	e1a0c00d 	mov	ip, sp
300004c0:	e92dd800 	stmdb	sp!, {fp, ip, lr, pc}
300004c4:	e24cb004 	sub	fp, ip, #4	; 0x4
300004c8:	e3a03205 	mov	r3, #1342177280	; 0x50000000
300004cc:	e2833010 	add	r3, r3, #16	; 0x10
300004d0:	e5933000 	ldr	r3, [r3]
300004d4:	e2033001 	and	r3, r3, #1	; 0x1
300004d8:	e3530000 	cmp	r3, #0	; 0x0
300004dc:	1a000000 	bne	300004e4 <getchar+0x28>
300004e0:	eafffff8 	b	300004c8 <getchar+0xc>
300004e4:	e3a03205 	mov	r3, #1342177280	; 0x50000000
300004e8:	e2833024 	add	r3, r3, #36	; 0x24
300004ec:	e5d33000 	ldrb	r3, [r3]
300004f0:	e20330ff 	and	r3, r3, #255	; 0xff
300004f4:	e1a00003 	mov	r0, r3
300004f8:	e89da800 	ldmia	sp, {fp, sp, pc}

300004fc <puts>:
300004fc:	e1a0c00d 	mov	ip, sp
30000500:	e92dd800 	stmdb	sp!, {fp, ip, lr, pc}
30000504:	e24cb004 	sub	fp, ip, #4	; 0x4
30000508:	e24dd004 	sub	sp, sp, #4	; 0x4
3000050c:	e50b0010 	str	r0, [fp, #-16]
30000510:	e51b3010 	ldr	r3, [fp, #-16]
30000514:	e5d33000 	ldrb	r3, [r3]
30000518:	e3530000 	cmp	r3, #0	; 0x0
3000051c:	0a000007 	beq	30000540 <puts+0x44>
30000520:	e51b3010 	ldr	r3, [fp, #-16]
30000524:	e5d33000 	ldrb	r3, [r3]
30000528:	e1a00003 	mov	r0, r3
3000052c:	ebffffd0 	bl	30000474 <putchar>
30000530:	e51b3010 	ldr	r3, [fp, #-16]
30000534:	e2833001 	add	r3, r3, #1	; 0x1
30000538:	e50b3010 	str	r3, [fp, #-16]
3000053c:	eafffff3 	b	30000510 <puts+0x14>
30000540:	e1a00003 	mov	r0, r3
30000544:	e89da808 	ldmia	sp, {r3, fp, sp, pc}

30000548 <hex_print>:
30000548:	e1a0c00d 	mov	ip, sp
3000054c:	e92dd800 	stmdb	sp!, {fp, ip, lr, pc}
30000550:	e24cb004 	sub	fp, ip, #4	; 0x4
30000554:	e24dd010 	sub	sp, sp, #16	; 0x10
30000558:	e50b0010 	str	r0, [fp, #-16]
3000055c:	e3a03000 	mov	r3, #0	; 0x0
30000560:	e50b301c 	str	r3, [fp, #-28]
30000564:	e51b301c 	ldr	r3, [fp, #-28]
30000568:	e3530007 	cmp	r3, #7	; 0x7
3000056c:	ca000041 	bgt	30000678 <hex_print+0x130>
30000570:	e3e0200b 	mvn	r2, #11	; 0xb
30000574:	e51b301c 	ldr	r3, [fp, #-28]
30000578:	e24b000c 	sub	r0, fp, #12	; 0xc
3000057c:	e0803003 	add	r3, r0, r3
30000580:	e0832002 	add	r2, r3, r2
30000584:	e51b3010 	ldr	r3, [fp, #-16]
30000588:	e203300f 	and	r3, r3, #15	; 0xf
3000058c:	e5c23000 	strb	r3, [r2]
30000590:	e3e0200b 	mvn	r2, #11	; 0xb
30000594:	e51b301c 	ldr	r3, [fp, #-28]
30000598:	e24b100c 	sub	r1, fp, #12	; 0xc
3000059c:	e0813003 	add	r3, r1, r3
300005a0:	e0833002 	add	r3, r3, r2
300005a4:	e5d33000 	ldrb	r3, [r3]
300005a8:	e3530009 	cmp	r3, #9	; 0x9
300005ac:	8a00000d 	bhi	300005e8 <hex_print+0xa0>
300005b0:	e3e0200b 	mvn	r2, #11	; 0xb
300005b4:	e51b301c 	ldr	r3, [fp, #-28]
300005b8:	e24b000c 	sub	r0, fp, #12	; 0xc
300005bc:	e0803003 	add	r3, r0, r3
300005c0:	e0831002 	add	r1, r3, r2
300005c4:	e3e0200b 	mvn	r2, #11	; 0xb
300005c8:	e51b301c 	ldr	r3, [fp, #-28]
300005cc:	e24b000c 	sub	r0, fp, #12	; 0xc
300005d0:	e0803003 	add	r3, r0, r3
300005d4:	e0833002 	add	r3, r3, r2
300005d8:	e5d33000 	ldrb	r3, [r3]
300005dc:	e2833030 	add	r3, r3, #48	; 0x30
300005e0:	e5c13000 	strb	r3, [r1]
300005e4:	ea00001c 	b	3000065c <hex_print+0x114>
300005e8:	e3e0200b 	mvn	r2, #11	; 0xb
300005ec:	e51b301c 	ldr	r3, [fp, #-28]
300005f0:	e24b100c 	sub	r1, fp, #12	; 0xc
300005f4:	e0813003 	add	r3, r1, r3
300005f8:	e0833002 	add	r3, r3, r2
300005fc:	e5d33000 	ldrb	r3, [r3]
30000600:	e3530009 	cmp	r3, #9	; 0x9
30000604:	9a000014 	bls	3000065c <hex_print+0x114>
30000608:	e3e0200b 	mvn	r2, #11	; 0xb
3000060c:	e51b301c 	ldr	r3, [fp, #-28]
30000610:	e24b000c 	sub	r0, fp, #12	; 0xc
30000614:	e0803003 	add	r3, r0, r3
30000618:	e0833002 	add	r3, r3, r2
3000061c:	e5d33000 	ldrb	r3, [r3]
30000620:	e353000f 	cmp	r3, #15	; 0xf
30000624:	8a00000c 	bhi	3000065c <hex_print+0x114>
30000628:	e3e0200b 	mvn	r2, #11	; 0xb
3000062c:	e51b301c 	ldr	r3, [fp, #-28]
30000630:	e24b100c 	sub	r1, fp, #12	; 0xc
30000634:	e0813003 	add	r3, r1, r3
30000638:	e0831002 	add	r1, r3, r2
3000063c:	e3e0200b 	mvn	r2, #11	; 0xb
30000640:	e51b301c 	ldr	r3, [fp, #-28]
30000644:	e24b000c 	sub	r0, fp, #12	; 0xc
30000648:	e0803003 	add	r3, r0, r3
3000064c:	e0833002 	add	r3, r3, r2
30000650:	e5d33000 	ldrb	r3, [r3]
30000654:	e2833037 	add	r3, r3, #55	; 0x37
30000658:	e5c13000 	strb	r3, [r1]
3000065c:	e51b3010 	ldr	r3, [fp, #-16]
30000660:	e1a03223 	mov	r3, r3, lsr #4
30000664:	e50b3010 	str	r3, [fp, #-16]
30000668:	e51b301c 	ldr	r3, [fp, #-28]
3000066c:	e2833001 	add	r3, r3, #1	; 0x1
30000670:	e50b301c 	str	r3, [fp, #-28]
30000674:	eaffffba 	b	30000564 <hex_print+0x1c>
30000678:	e59f0054 	ldr	r0, [pc, #84]	; 300006d4 <.text+0x6d4>
3000067c:	ebffff9e 	bl	300004fc <puts>
30000680:	e3a03007 	mov	r3, #7	; 0x7
30000684:	e50b301c 	str	r3, [fp, #-28]
30000688:	e51b301c 	ldr	r3, [fp, #-28]
3000068c:	e3530000 	cmp	r3, #0	; 0x0
30000690:	ba00000b 	blt	300006c4 <hex_print+0x17c>
30000694:	e3e0200b 	mvn	r2, #11	; 0xb
30000698:	e51b301c 	ldr	r3, [fp, #-28]
3000069c:	e24b100c 	sub	r1, fp, #12	; 0xc
300006a0:	e0813003 	add	r3, r1, r3
300006a4:	e0833002 	add	r3, r3, r2
300006a8:	e5d33000 	ldrb	r3, [r3]
300006ac:	e1a00003 	mov	r0, r3
300006b0:	ebffff6f 	bl	30000474 <putchar>
300006b4:	e51b301c 	ldr	r3, [fp, #-28]
300006b8:	e2433001 	sub	r3, r3, #1	; 0x1
300006bc:	e50b301c 	str	r3, [fp, #-28]
300006c0:	eafffff0 	b	30000688 <hex_print+0x140>
300006c4:	e59f000c 	ldr	r0, [pc, #12]	; 300006d8 <.text+0x6d8>
300006c8:	ebffff8b 	bl	300004fc <puts>
300006cc:	e24bd00c 	sub	sp, fp, #12	; 0xc
300006d0:	e89da800 	ldmia	sp, {fp, sp, pc}
300006d4:	300007e0 	andcc	r0, r0, r0, ror #15
300006d8:	300007e4 	andcc	r0, r0, r4, ror #15

300006dc <main>:
300006dc:	e1a0c00d 	mov	ip, sp
300006e0:	e92dd800 	stmdb	sp!, {fp, ip, lr, pc}
300006e4:	e24cb004 	sub	fp, ip, #4	; 0x4
300006e8:	e59f0078 	ldr	r0, [pc, #120]	; 30000768 <.text+0x768>
300006ec:	ebffff82 	bl	300004fc <puts>
300006f0:	e59f3074 	ldr	r3, [pc, #116]	; 3000076c <.text+0x76c>
300006f4:	e5930000 	ldr	r0, [r3]
300006f8:	ebffff92 	bl	30000548 <hex_print>
300006fc:	e59f006c 	ldr	r0, [pc, #108]	; 30000770 <.text+0x770>
30000700:	ebffff7d 	bl	300004fc <puts>
30000704:	e59f3068 	ldr	r3, [pc, #104]	; 30000774 <.text+0x774>
30000708:	e5d32000 	ldrb	r2, [r3]
3000070c:	e5d33001 	ldrb	r3, [r3, #1]
30000710:	e1a03c03 	mov	r3, r3, lsl #24
30000714:	e1823843 	orr	r3, r2, r3, asr #16
30000718:	e1a00003 	mov	r0, r3
3000071c:	ebffff89 	bl	30000548 <hex_print>
30000720:	e59f0050 	ldr	r0, [pc, #80]	; 30000778 <.text+0x778>
30000724:	ebffff74 	bl	300004fc <puts>
30000728:	e59f304c 	ldr	r3, [pc, #76]	; 3000077c <.text+0x77c>
3000072c:	e5930000 	ldr	r0, [r3]
30000730:	ebffff84 	bl	30000548 <hex_print>
30000734:	e59f3044 	ldr	r3, [pc, #68]	; 30000780 <.text+0x780>
30000738:	e5d33000 	ldrb	r3, [r3]
3000073c:	e1a00003 	mov	r0, r3
30000740:	ebffff4b 	bl	30000474 <putchar>
30000744:	e59f2034 	ldr	r2, [pc, #52]	; 30000780 <.text+0x780>
30000748:	e59f3030 	ldr	r3, [pc, #48]	; 30000780 <.text+0x780>
3000074c:	e5d33000 	ldrb	r3, [r3]
30000750:	e2833001 	add	r3, r3, #1	; 0x1
30000754:	e5c23000 	strb	r3, [r2]
30000758:	e3a0093d 	mov	r0, #999424	; 0xf4000
3000075c:	e2800d09 	add	r0, r0, #576	; 0x240
30000760:	ebfffe7b 	bl	30000154 <delay>
30000764:	eafffff2 	b	30000734 <main+0x58>
30000768:	300007e8 	andcc	r0, r0, r8, ror #15
3000076c:	30000804 	andcc	r0, r0, r4, lsl #16
30000770:	300007f0 	strccd	r0, [r0], -r0
30000774:	30000808 	andcc	r0, r0, r8, lsl #16
30000778:	300007f8 	strccd	r0, [r0], -r8
3000077c:	3000080c 	andcc	r0, r0, ip, lsl #16
30000780:	30000800 	andcc	r0, r0, r0, lsl #16
Disassembly of section .rodata:

30000784 <.rodata>:
30000784:	20646e75 	rsbcs	r6, r4, r5, ror lr
30000788:	65637865 	strvsb	r7, [r3, #-2149]!
3000078c:	6f697470 	swivs	0x00697470
30000790:	636f206e 	cmnvs	pc, #110	; 0x6e
30000794:	73727563 	cmnvc	r2, #415236096	; 0x18c00000
30000798:	000d0a21 	andeq	r0, sp, r1, lsr #20
3000079c:	72646461 	rsbvc	r6, r4, #1627389952	; 0x61000000
300007a0:	7830203a 	ldmvcda	r0!, {r1, r3, r4, r5, sp}
300007a4:	00203d20 	eoreq	r3, r0, r0, lsr #26
300007a8:	74736e69 	ldrvcbt	r6, [r3], #-3689
300007ac:	74637572 	strvcbt	r7, [r3], #-1394
300007b0:	3a6e6f69 	bcc	31b9c55c <b+0x1b9bd4c>
300007b4:	00000020 	andeq	r0, r0, r0, lsr #32
300007b8:	61207369 	teqvs	r0, r9, ror #6
300007bc:	64616220 	strvsbt	r6, [r1], #-544
300007c0:	736e6920 	cmnvc	lr, #524288	; 0x80000
300007c4:	63757274 	cmnvs	r5, #1073741831	; 0x40000007
300007c8:	6e6f6974 	mcrvs	9, 3, r6, cr15, cr4, {3}
300007cc:	000d0a21 	andeq	r0, sp, r1, lsr #20
300007d0:	0a636261 	beq	318d915c <b+0x18d894c>
300007d4:	0000000d 	andeq	r0, r0, sp
300007d8:	0a666465 	beq	31999974 <b+0x1999164>
300007dc:	0000000d 	andeq	r0, r0, sp
300007e0:	00007830 	andeq	r7, r0, r0, lsr r8
300007e4:	00000d0a 	andeq	r0, r0, sl, lsl #26
300007e8:	203d2061 	eorcss	r2, sp, r1, rrx
300007ec:	00000000 	andeq	r0, r0, r0
300007f0:	203d2063 	eorcss	r2, sp, r3, rrx
300007f4:	00000000 	andeq	r0, r0, r0
300007f8:	203d2064 	eorcss	r2, sp, r4, rrx
300007fc:	00000000 	andeq	r0, r0, r0
Disassembly of section .data:

30000800 <g_A>:
30000800:	Address 0x30000800 is out of bounds.

Disassembly of section .bss:

30000804 <a>:
30000804:	00000000 	andeq	r0, r0, r0

30000808 <c>:
30000808:	00000000 	andeq	r0, r0, r0

3000080c <d>:
3000080c:	00000000 	andeq	r0, r0, r0

30000810 <b>:
30000810:	00000000 	andeq	r0, r0, r0
Disassembly of section .comment:

00000000 <.comment>:
   0:	43434700 	cmpmi	r3, #0	; 0x0
   4:	4728203a 	undefined
   8:	2029554e 	eorcs	r5, r9, lr, asr #10
   c:	2e342e33 	mrccs	14, 1, r2, cr4, cr3, {1}
  10:	47000035 	smladxmi	r0, r5, r0, r0
  14:	203a4343 	eorcss	r4, sl, r3, asr #6
  18:	554e4728 	strplb	r4, [lr, #-1832]
  1c:	2e332029 	cdpcs	0, 3, cr2, cr3, cr9, {1}
  20:	00352e34 	eoreqs	r2, r5, r4, lsr lr
  24:	43434700 	cmpmi	r3, #0	; 0x0
  28:	4728203a 	undefined
  2c:	2029554e 	eorcs	r5, r9, lr, asr #10
  30:	2e342e33 	mrccs	14, 1, r2, cr4, cr3, {1}
  34:	47000035 	smladxmi	r0, r5, r0, r0
  38:	203a4343 	eorcss	r4, sl, r3, asr #6
  3c:	554e4728 	strplb	r4, [lr, #-1832]
  40:	2e332029 	cdpcs	0, 3, cr2, cr3, cr9, {1}
  44:	00352e34 	eoreqs	r2, r5, r4, lsr lr
  48:	43434700 	cmpmi	r3, #0	; 0x0
  4c:	4728203a 	undefined
  50:	2029554e 	eorcs	r5, r9, lr, asr #10
  54:	2e342e33 	mrccs	14, 1, r2, cr4, cr3, {1}
  58:	Address 0x58 is out of bounds.

