
uart.elf:     file format elf32-littlearm

Disassembly of section .text:

00000000 <_start>:
   0:	e3a00313 	mov	r0, #1275068416	; 0x4c000000
   4:	e3e01000 	mvn	r1, #0	; 0x0
   8:	e5801000 	str	r1, [r0]
   c:	e59f0050 	ldr	r0, [pc, #80]	; 64 <.text+0x64>
  10:	e3a01005 	mov	r1, #5	; 0x5
  14:	e5801000 	str	r1, [r0]
  18:	ee110f10 	mrc	15, 0, r0, cr1, cr0, {0}
  1c:	e3800103 	orr	r0, r0, #-1073741824	; 0xc0000000
  20:	ee010f10 	mcr	15, 0, r0, cr1, cr0, {0}
  24:	e59f003c 	ldr	r0, [pc, #60]	; 68 <.text+0x68>
  28:	e59f103c 	ldr	r1, [pc, #60]	; 6c <.text+0x6c>
  2c:	e5801000 	str	r1, [r0]
  30:	e3a00453 	mov	r0, #1392508928	; 0x53000000
  34:	e3a01000 	mov	r1, #0	; 0x0
  38:	e5801000 	str	r1, [r0]
  3c:	e3a01000 	mov	r1, #0	; 0x0
  40:	e5910000 	ldr	r0, [r1]
  44:	e5811000 	str	r1, [r1]
  48:	e5912000 	ldr	r2, [r1]
  4c:	e1510002 	cmp	r1, r2
  50:	e59fd018 	ldr	sp, [pc, #24]	; 70 <.text+0x70>
  54:	03a0da01 	moveq	sp, #4096	; 0x1000
  58:	05810000 	streq	r0, [r1]
  5c:	eb000297 	bl	ac0 <main>

00000060 <halt>:
  60:	eafffffe 	b	60 <halt>
  64:	4c000014 	stcmi	0, cr0, [r0], {20}
  68:	4c000004 	stcmi	0, cr0, [r0], {4}
  6c:	0005c011 	andeq	ip, r5, r1, lsl r0
  70:	40001000 	andmi	r1, r0, r0

00000074 <uart_init>:
  74:	e1a0c00d 	mov	ip, sp
  78:	e92dd800 	stmdb	sp!, {fp, ip, lr, pc}
  7c:	e24cb004 	sub	fp, ip, #4	; 0x4
  80:	e3a02456 	mov	r2, #1442840576	; 0x56000000
  84:	e2822070 	add	r2, r2, #112	; 0x70
  88:	e3a03456 	mov	r3, #1442840576	; 0x56000000
  8c:	e2833070 	add	r3, r3, #112	; 0x70
  90:	e5933000 	ldr	r3, [r3]
  94:	e3c330f0 	bic	r3, r3, #240	; 0xf0
  98:	e5823000 	str	r3, [r2]
  9c:	e3a02456 	mov	r2, #1442840576	; 0x56000000
  a0:	e2822070 	add	r2, r2, #112	; 0x70
  a4:	e3a03456 	mov	r3, #1442840576	; 0x56000000
  a8:	e2833070 	add	r3, r3, #112	; 0x70
  ac:	e5933000 	ldr	r3, [r3]
  b0:	e38330a0 	orr	r3, r3, #160	; 0xa0
  b4:	e5823000 	str	r3, [r2]
  b8:	e3a02456 	mov	r2, #1442840576	; 0x56000000
  bc:	e2822078 	add	r2, r2, #120	; 0x78
  c0:	e3a03456 	mov	r3, #1442840576	; 0x56000000
  c4:	e2833078 	add	r3, r3, #120	; 0x78
  c8:	e5933000 	ldr	r3, [r3]
  cc:	e3c3300c 	bic	r3, r3, #12	; 0xc
  d0:	e5823000 	str	r3, [r2]
  d4:	e3a02245 	mov	r2, #1342177284	; 0x50000004
  d8:	e3a03005 	mov	r3, #5	; 0x5
  dc:	e5823000 	str	r3, [r2]
  e0:	e3a03205 	mov	r3, #1342177280	; 0x50000000
  e4:	e2833028 	add	r3, r3, #40	; 0x28
  e8:	e3a0201a 	mov	r2, #26	; 0x1a
  ec:	e5832000 	str	r2, [r3]
  f0:	e3a02205 	mov	r2, #1342177280	; 0x50000000
  f4:	e3a03003 	mov	r3, #3	; 0x3
  f8:	e5823000 	str	r3, [r2]
  fc:	e89da800 	ldmia	sp, {fp, sp, pc}

00000100 <putchar>:
 100:	e1a0c00d 	mov	ip, sp
 104:	e92dd800 	stmdb	sp!, {fp, ip, lr, pc}
 108:	e24cb004 	sub	fp, ip, #4	; 0x4
 10c:	e24dd004 	sub	sp, sp, #4	; 0x4
 110:	e50b0010 	str	r0, [fp, #-16]
 114:	e3a03205 	mov	r3, #1342177280	; 0x50000000
 118:	e2833010 	add	r3, r3, #16	; 0x10
 11c:	e5933000 	ldr	r3, [r3]
 120:	e2033004 	and	r3, r3, #4	; 0x4
 124:	e3530000 	cmp	r3, #0	; 0x0
 128:	1a000000 	bne	130 <putchar+0x30>
 12c:	eafffff8 	b	114 <putchar+0x14>
 130:	e3a03205 	mov	r3, #1342177280	; 0x50000000
 134:	e2833020 	add	r3, r3, #32	; 0x20
 138:	e51b2010 	ldr	r2, [fp, #-16]
 13c:	e5c32000 	strb	r2, [r3]
 140:	e3a03000 	mov	r3, #0	; 0x0
 144:	e1a00003 	mov	r0, r3
 148:	e89da808 	ldmia	sp, {r3, fp, sp, pc}

0000014c <getchar>:
 14c:	e1a0c00d 	mov	ip, sp
 150:	e92dd800 	stmdb	sp!, {fp, ip, lr, pc}
 154:	e24cb004 	sub	fp, ip, #4	; 0x4
 158:	e3a03205 	mov	r3, #1342177280	; 0x50000000
 15c:	e2833010 	add	r3, r3, #16	; 0x10
 160:	e5933000 	ldr	r3, [r3]
 164:	e2033001 	and	r3, r3, #1	; 0x1
 168:	e3530000 	cmp	r3, #0	; 0x0
 16c:	1a000000 	bne	174 <getchar+0x28>
 170:	eafffff8 	b	158 <getchar+0xc>
 174:	e3a03205 	mov	r3, #1342177280	; 0x50000000
 178:	e2833024 	add	r3, r3, #36	; 0x24
 17c:	e5d33000 	ldrb	r3, [r3]
 180:	e20330ff 	and	r3, r3, #255	; 0xff
 184:	e1a00003 	mov	r0, r3
 188:	e89da800 	ldmia	sp, {fp, sp, pc}

0000018c <puts>:
 18c:	e1a0c00d 	mov	ip, sp
 190:	e92dd800 	stmdb	sp!, {fp, ip, lr, pc}
 194:	e24cb004 	sub	fp, ip, #4	; 0x4
 198:	e24dd004 	sub	sp, sp, #4	; 0x4
 19c:	e50b0010 	str	r0, [fp, #-16]
 1a0:	e51b3010 	ldr	r3, [fp, #-16]
 1a4:	e5d33000 	ldrb	r3, [r3]
 1a8:	e3530000 	cmp	r3, #0	; 0x0
 1ac:	0a000007 	beq	1d0 <puts+0x44>
 1b0:	e51b3010 	ldr	r3, [fp, #-16]
 1b4:	e5d33000 	ldrb	r3, [r3]
 1b8:	e1a00003 	mov	r0, r3
 1bc:	ebffffcf 	bl	100 <putchar>
 1c0:	e51b3010 	ldr	r3, [fp, #-16]
 1c4:	e2833001 	add	r3, r3, #1	; 0x1
 1c8:	e50b3010 	str	r3, [fp, #-16]
 1cc:	eafffff3 	b	1a0 <puts+0x14>
 1d0:	e1a00003 	mov	r0, r3
 1d4:	e89da808 	ldmia	sp, {r3, fp, sp, pc}
	...

000001e0 <__udivsi3>:
 1e0:	e2512001 	subs	r2, r1, #1	; 0x1
 1e4:	01a0f00e 	moveq	pc, lr
 1e8:	3a0000e5 	bcc	584 <Ldiv0>
 1ec:	e1500001 	cmp	r0, r1
 1f0:	9a000022 	bls	280 <__udivsi3+0xa0>
 1f4:	e1110002 	tst	r1, r2
 1f8:	0a000023 	beq	28c <__udivsi3+0xac>
 1fc:	e311020e 	tst	r1, #-536870912	; 0xe0000000
 200:	01a01181 	moveq	r1, r1, lsl #3
 204:	03a03008 	moveq	r3, #8	; 0x8
 208:	13a03001 	movne	r3, #1	; 0x1
 20c:	e3510201 	cmp	r1, #268435456	; 0x10000000
 210:	31510000 	cmpcc	r1, r0
 214:	31a01201 	movcc	r1, r1, lsl #4
 218:	31a03203 	movcc	r3, r3, lsl #4
 21c:	3afffffa 	bcc	20c <__udivsi3+0x2c>
 220:	e3510102 	cmp	r1, #-2147483648	; 0x80000000
 224:	31510000 	cmpcc	r1, r0
 228:	31a01081 	movcc	r1, r1, lsl #1
 22c:	31a03083 	movcc	r3, r3, lsl #1
 230:	3afffffa 	bcc	220 <__udivsi3+0x40>
 234:	e3a02000 	mov	r2, #0	; 0x0
 238:	e1500001 	cmp	r0, r1
 23c:	20400001 	subcs	r0, r0, r1
 240:	21822003 	orrcs	r2, r2, r3
 244:	e15000a1 	cmp	r0, r1, lsr #1
 248:	204000a1 	subcs	r0, r0, r1, lsr #1
 24c:	218220a3 	orrcs	r2, r2, r3, lsr #1
 250:	e1500121 	cmp	r0, r1, lsr #2
 254:	20400121 	subcs	r0, r0, r1, lsr #2
 258:	21822123 	orrcs	r2, r2, r3, lsr #2
 25c:	e15001a1 	cmp	r0, r1, lsr #3
 260:	204001a1 	subcs	r0, r0, r1, lsr #3
 264:	218221a3 	orrcs	r2, r2, r3, lsr #3
 268:	e3500000 	cmp	r0, #0	; 0x0
 26c:	11b03223 	movnes	r3, r3, lsr #4
 270:	11a01221 	movne	r1, r1, lsr #4
 274:	1affffef 	bne	238 <__udivsi3+0x58>
 278:	e1a00002 	mov	r0, r2
 27c:	e1a0f00e 	mov	pc, lr
 280:	03a00001 	moveq	r0, #1	; 0x1
 284:	13a00000 	movne	r0, #0	; 0x0
 288:	e1a0f00e 	mov	pc, lr
 28c:	e3510801 	cmp	r1, #65536	; 0x10000
 290:	21a01821 	movcs	r1, r1, lsr #16
 294:	23a02010 	movcs	r2, #16	; 0x10
 298:	33a02000 	movcc	r2, #0	; 0x0
 29c:	e3510c01 	cmp	r1, #256	; 0x100
 2a0:	21a01421 	movcs	r1, r1, lsr #8
 2a4:	22822008 	addcs	r2, r2, #8	; 0x8
 2a8:	e3510010 	cmp	r1, #16	; 0x10
 2ac:	21a01221 	movcs	r1, r1, lsr #4
 2b0:	22822004 	addcs	r2, r2, #4	; 0x4
 2b4:	e3510004 	cmp	r1, #4	; 0x4
 2b8:	82822003 	addhi	r2, r2, #3	; 0x3
 2bc:	908220a1 	addls	r2, r2, r1, lsr #1
 2c0:	e1a00230 	mov	r0, r0, lsr r2
 2c4:	e1a0f00e 	mov	pc, lr
 2c8:	90909090 	umulllss	r9, r0, r0, r0
 2cc:	90909090 	umulllss	r9, r0, r0, r0

000002d0 <__umodsi3>:
 2d0:	e2512001 	subs	r2, r1, #1	; 0x1
 2d4:	3a0000aa 	bcc	584 <Ldiv0>
 2d8:	11500001 	cmpne	r0, r1
 2dc:	03a00000 	moveq	r0, #0	; 0x0
 2e0:	81110002 	tsthi	r1, r2
 2e4:	00000002 	andeq	r0, r0, r2
 2e8:	91a0f00e 	movls	pc, lr
 2ec:	e3a02000 	mov	r2, #0	; 0x0
 2f0:	e3510201 	cmp	r1, #268435456	; 0x10000000
 2f4:	31510000 	cmpcc	r1, r0
 2f8:	31a01201 	movcc	r1, r1, lsl #4
 2fc:	32822004 	addcc	r2, r2, #4	; 0x4
 300:	3afffffa 	bcc	2f0 <__umodsi3+0x20>
 304:	e3510102 	cmp	r1, #-2147483648	; 0x80000000
 308:	31510000 	cmpcc	r1, r0
 30c:	31a01081 	movcc	r1, r1, lsl #1
 310:	32822001 	addcc	r2, r2, #1	; 0x1
 314:	3afffffa 	bcc	304 <__umodsi3+0x34>
 318:	e2522003 	subs	r2, r2, #3	; 0x3
 31c:	ba00000e 	blt	35c <__umodsi3+0x8c>
 320:	e1500001 	cmp	r0, r1
 324:	20400001 	subcs	r0, r0, r1
 328:	e15000a1 	cmp	r0, r1, lsr #1
 32c:	204000a1 	subcs	r0, r0, r1, lsr #1
 330:	e1500121 	cmp	r0, r1, lsr #2
 334:	20400121 	subcs	r0, r0, r1, lsr #2
 338:	e15001a1 	cmp	r0, r1, lsr #3
 33c:	204001a1 	subcs	r0, r0, r1, lsr #3
 340:	e3500001 	cmp	r0, #1	; 0x1
 344:	e1a01221 	mov	r1, r1, lsr #4
 348:	a2522004 	subges	r2, r2, #4	; 0x4
 34c:	aafffff3 	bge	320 <__umodsi3+0x50>
 350:	e3120003 	tst	r2, #3	; 0x3
 354:	13300000 	teqne	r0, #0	; 0x0
 358:	0a00000a 	beq	388 <__umodsi3+0xb8>
 35c:	e3720002 	cmn	r2, #2	; 0x2
 360:	ba000006 	blt	380 <__umodsi3+0xb0>
 364:	0a000002 	beq	374 <__umodsi3+0xa4>
 368:	e1500001 	cmp	r0, r1
 36c:	20400001 	subcs	r0, r0, r1
 370:	e1a010a1 	mov	r1, r1, lsr #1
 374:	e1500001 	cmp	r0, r1
 378:	20400001 	subcs	r0, r0, r1
 37c:	e1a010a1 	mov	r1, r1, lsr #1
 380:	e1500001 	cmp	r0, r1
 384:	20400001 	subcs	r0, r0, r1
 388:	e1a0f00e 	mov	pc, lr
 38c:	90909090 	umulllss	r9, r0, r0, r0

00000390 <__divsi3>:
 390:	e3510000 	cmp	r1, #0	; 0x0
 394:	e020c001 	eor	ip, r0, r1
 398:	0a000079 	beq	584 <Ldiv0>
 39c:	42611000 	rsbmi	r1, r1, #0	; 0x0
 3a0:	e2512001 	subs	r2, r1, #1	; 0x1
 3a4:	0a000027 	beq	448 <__divsi3+0xb8>
 3a8:	e1b03000 	movs	r3, r0
 3ac:	42603000 	rsbmi	r3, r0, #0	; 0x0
 3b0:	e1530001 	cmp	r3, r1
 3b4:	9a000026 	bls	454 <__divsi3+0xc4>
 3b8:	e1110002 	tst	r1, r2
 3bc:	0a000028 	beq	464 <__divsi3+0xd4>
 3c0:	e311020e 	tst	r1, #-536870912	; 0xe0000000
 3c4:	01a01181 	moveq	r1, r1, lsl #3
 3c8:	03a02008 	moveq	r2, #8	; 0x8
 3cc:	13a02001 	movne	r2, #1	; 0x1
 3d0:	e3510201 	cmp	r1, #268435456	; 0x10000000
 3d4:	31510003 	cmpcc	r1, r3
 3d8:	31a01201 	movcc	r1, r1, lsl #4
 3dc:	31a02202 	movcc	r2, r2, lsl #4
 3e0:	3afffffa 	bcc	3d0 <__divsi3+0x40>
 3e4:	e3510102 	cmp	r1, #-2147483648	; 0x80000000
 3e8:	31510003 	cmpcc	r1, r3
 3ec:	31a01081 	movcc	r1, r1, lsl #1
 3f0:	31a02082 	movcc	r2, r2, lsl #1
 3f4:	3afffffa 	bcc	3e4 <__divsi3+0x54>
 3f8:	e3a00000 	mov	r0, #0	; 0x0
 3fc:	e1530001 	cmp	r3, r1
 400:	20433001 	subcs	r3, r3, r1
 404:	21800002 	orrcs	r0, r0, r2
 408:	e15300a1 	cmp	r3, r1, lsr #1
 40c:	204330a1 	subcs	r3, r3, r1, lsr #1
 410:	218000a2 	orrcs	r0, r0, r2, lsr #1
 414:	e1530121 	cmp	r3, r1, lsr #2
 418:	20433121 	subcs	r3, r3, r1, lsr #2
 41c:	21800122 	orrcs	r0, r0, r2, lsr #2
 420:	e15301a1 	cmp	r3, r1, lsr #3
 424:	204331a1 	subcs	r3, r3, r1, lsr #3
 428:	218001a2 	orrcs	r0, r0, r2, lsr #3
 42c:	e3530000 	cmp	r3, #0	; 0x0
 430:	11b02222 	movnes	r2, r2, lsr #4
 434:	11a01221 	movne	r1, r1, lsr #4
 438:	1affffef 	bne	3fc <__divsi3+0x6c>
 43c:	e35c0000 	cmp	ip, #0	; 0x0
 440:	42600000 	rsbmi	r0, r0, #0	; 0x0
 444:	e1a0f00e 	mov	pc, lr
 448:	e13c0000 	teq	ip, r0
 44c:	42600000 	rsbmi	r0, r0, #0	; 0x0
 450:	e1a0f00e 	mov	pc, lr
 454:	33a00000 	movcc	r0, #0	; 0x0
 458:	01a00fcc 	moveq	r0, ip, asr #31
 45c:	03800001 	orreq	r0, r0, #1	; 0x1
 460:	e1a0f00e 	mov	pc, lr
 464:	e3510801 	cmp	r1, #65536	; 0x10000
 468:	21a01821 	movcs	r1, r1, lsr #16
 46c:	23a02010 	movcs	r2, #16	; 0x10
 470:	33a02000 	movcc	r2, #0	; 0x0
 474:	e3510c01 	cmp	r1, #256	; 0x100
 478:	21a01421 	movcs	r1, r1, lsr #8
 47c:	22822008 	addcs	r2, r2, #8	; 0x8
 480:	e3510010 	cmp	r1, #16	; 0x10
 484:	21a01221 	movcs	r1, r1, lsr #4
 488:	22822004 	addcs	r2, r2, #4	; 0x4
 48c:	e3510004 	cmp	r1, #4	; 0x4
 490:	82822003 	addhi	r2, r2, #3	; 0x3
 494:	908220a1 	addls	r2, r2, r1, lsr #1
 498:	e35c0000 	cmp	ip, #0	; 0x0
 49c:	e1a00233 	mov	r0, r3, lsr r2
 4a0:	42600000 	rsbmi	r0, r0, #0	; 0x0
 4a4:	e1a0f00e 	mov	pc, lr
 4a8:	90909090 	umulllss	r9, r0, r0, r0
 4ac:	90909090 	umulllss	r9, r0, r0, r0

000004b0 <__modsi3>:
 4b0:	e3510000 	cmp	r1, #0	; 0x0
 4b4:	0a000032 	beq	584 <Ldiv0>
 4b8:	42611000 	rsbmi	r1, r1, #0	; 0x0
 4bc:	e1b0c000 	movs	ip, r0
 4c0:	42600000 	rsbmi	r0, r0, #0	; 0x0
 4c4:	e2512001 	subs	r2, r1, #1	; 0x1
 4c8:	11500001 	cmpne	r0, r1
 4cc:	03a00000 	moveq	r0, #0	; 0x0
 4d0:	81110002 	tsthi	r1, r2
 4d4:	00000002 	andeq	r0, r0, r2
 4d8:	9a000026 	bls	578 <__modsi3+0xc8>
 4dc:	e3a02000 	mov	r2, #0	; 0x0
 4e0:	e3510201 	cmp	r1, #268435456	; 0x10000000
 4e4:	31510000 	cmpcc	r1, r0
 4e8:	31a01201 	movcc	r1, r1, lsl #4
 4ec:	32822004 	addcc	r2, r2, #4	; 0x4
 4f0:	3afffffa 	bcc	4e0 <__modsi3+0x30>
 4f4:	e3510102 	cmp	r1, #-2147483648	; 0x80000000
 4f8:	31510000 	cmpcc	r1, r0
 4fc:	31a01081 	movcc	r1, r1, lsl #1
 500:	32822001 	addcc	r2, r2, #1	; 0x1
 504:	3afffffa 	bcc	4f4 <__modsi3+0x44>
 508:	e2522003 	subs	r2, r2, #3	; 0x3
 50c:	ba00000e 	blt	54c <__modsi3+0x9c>
 510:	e1500001 	cmp	r0, r1
 514:	20400001 	subcs	r0, r0, r1
 518:	e15000a1 	cmp	r0, r1, lsr #1
 51c:	204000a1 	subcs	r0, r0, r1, lsr #1
 520:	e1500121 	cmp	r0, r1, lsr #2
 524:	20400121 	subcs	r0, r0, r1, lsr #2
 528:	e15001a1 	cmp	r0, r1, lsr #3
 52c:	204001a1 	subcs	r0, r0, r1, lsr #3
 530:	e3500001 	cmp	r0, #1	; 0x1
 534:	e1a01221 	mov	r1, r1, lsr #4
 538:	a2522004 	subges	r2, r2, #4	; 0x4
 53c:	aafffff3 	bge	510 <__modsi3+0x60>
 540:	e3120003 	tst	r2, #3	; 0x3
 544:	13300000 	teqne	r0, #0	; 0x0
 548:	0a00000a 	beq	578 <__modsi3+0xc8>
 54c:	e3720002 	cmn	r2, #2	; 0x2
 550:	ba000006 	blt	570 <__modsi3+0xc0>
 554:	0a000002 	beq	564 <__modsi3+0xb4>
 558:	e1500001 	cmp	r0, r1
 55c:	20400001 	subcs	r0, r0, r1
 560:	e1a010a1 	mov	r1, r1, lsr #1
 564:	e1500001 	cmp	r0, r1
 568:	20400001 	subcs	r0, r0, r1
 56c:	e1a010a1 	mov	r1, r1, lsr #1
 570:	e1500001 	cmp	r0, r1
 574:	20400001 	subcs	r0, r0, r1
 578:	e35c0000 	cmp	ip, #0	; 0x0
 57c:	42600000 	rsbmi	r0, r0, #0	; 0x0
 580:	e1a0f00e 	mov	pc, lr

00000584 <Ldiv0>:
 584:	e52de004 	str	lr, [sp, #-4]!
 588:	e3a00000 	mov	r0, #0	; 0x0
 58c:	e49df004 	ldr	pc, [sp], #4

00000590 <out_num>:
 590:	e1a0c00d 	mov	ip, sp
 594:	e92dd830 	stmdb	sp!, {r4, r5, fp, ip, lr, pc}
 598:	e24cb004 	sub	fp, ip, #4	; 0x4
 59c:	e24dd060 	sub	sp, sp, #96	; 0x60
 5a0:	e50b0018 	str	r0, [fp, #-24]
 5a4:	e50b2020 	str	r2, [fp, #-32]
 5a8:	e50b3024 	str	r3, [fp, #-36]
 5ac:	e1a03001 	mov	r3, r1
 5b0:	e54b3019 	strb	r3, [fp, #-25]
 5b4:	e3a03000 	mov	r3, #0	; 0x0
 5b8:	e50b3028 	str	r3, [fp, #-40]
 5bc:	e24b3068 	sub	r3, fp, #104	; 0x68
 5c0:	e2833040 	add	r3, r3, #64	; 0x40
 5c4:	e50b306c 	str	r3, [fp, #-108]
 5c8:	e3a03000 	mov	r3, #0	; 0x0
 5cc:	e50b3070 	str	r3, [fp, #-112]
 5d0:	e3a03000 	mov	r3, #0	; 0x0
 5d4:	e50b3074 	str	r3, [fp, #-116]
 5d8:	e51b306c 	ldr	r3, [fp, #-108]
 5dc:	e2433001 	sub	r3, r3, #1	; 0x1
 5e0:	e1a02003 	mov	r2, r3
 5e4:	e50b206c 	str	r2, [fp, #-108]
 5e8:	e3a03000 	mov	r3, #0	; 0x0
 5ec:	e5c23000 	strb	r3, [r2]
 5f0:	e51b3018 	ldr	r3, [fp, #-24]
 5f4:	e3530000 	cmp	r3, #0	; 0x0
 5f8:	aa000003 	bge	60c <out_num+0x7c>
 5fc:	e51b3018 	ldr	r3, [fp, #-24]
 600:	e2633000 	rsb	r3, r3, #0	; 0x0
 604:	e50b3028 	str	r3, [fp, #-40]
 608:	ea000001 	b	614 <out_num+0x84>
 60c:	e51b3018 	ldr	r3, [fp, #-24]
 610:	e50b3028 	str	r3, [fp, #-40]
 614:	e51b306c 	ldr	r3, [fp, #-108]
 618:	e2433001 	sub	r3, r3, #1	; 0x1
 61c:	e1a04003 	mov	r4, r3
 620:	e50b406c 	str	r4, [fp, #-108]
 624:	e59f50e0 	ldr	r5, [pc, #224]	; 70c <.text+0x70c>
 628:	e51b3028 	ldr	r3, [fp, #-40]
 62c:	e1a00003 	mov	r0, r3
 630:	e51b1024 	ldr	r1, [fp, #-36]
 634:	ebffff25 	bl	2d0 <__umodsi3>
 638:	e1a03000 	mov	r3, r0
 63c:	e7d53003 	ldrb	r3, [r5, r3]
 640:	e5c43000 	strb	r3, [r4]
 644:	e51b3070 	ldr	r3, [fp, #-112]
 648:	e2833001 	add	r3, r3, #1	; 0x1
 64c:	e50b3070 	str	r3, [fp, #-112]
 650:	e51b0028 	ldr	r0, [fp, #-40]
 654:	e51b1024 	ldr	r1, [fp, #-36]
 658:	ebfffee0 	bl	1e0 <__udivsi3>
 65c:	e1a03000 	mov	r3, r0
 660:	e50b3028 	str	r3, [fp, #-40]
 664:	e3530000 	cmp	r3, #0	; 0x0
 668:	0a000000 	beq	670 <out_num+0xe0>
 66c:	eaffffe8 	b	614 <out_num+0x84>
 670:	e51b3020 	ldr	r3, [fp, #-32]
 674:	e3530000 	cmp	r3, #0	; 0x0
 678:	0a000014 	beq	6d0 <out_num+0x140>
 67c:	e51b2070 	ldr	r2, [fp, #-112]
 680:	e51b3020 	ldr	r3, [fp, #-32]
 684:	e1520003 	cmp	r2, r3
 688:	aa000010 	bge	6d0 <out_num+0x140>
 68c:	e51b3020 	ldr	r3, [fp, #-32]
 690:	e51b2070 	ldr	r2, [fp, #-112]
 694:	e0623003 	rsb	r3, r2, r3
 698:	e50b3074 	str	r3, [fp, #-116]
 69c:	e51b3074 	ldr	r3, [fp, #-116]
 6a0:	e3530000 	cmp	r3, #0	; 0x0
 6a4:	0a000009 	beq	6d0 <out_num+0x140>
 6a8:	e51b306c 	ldr	r3, [fp, #-108]
 6ac:	e2433001 	sub	r3, r3, #1	; 0x1
 6b0:	e1a02003 	mov	r2, r3
 6b4:	e50b206c 	str	r2, [fp, #-108]
 6b8:	e55b3019 	ldrb	r3, [fp, #-25]
 6bc:	e5c23000 	strb	r3, [r2]
 6c0:	e51b3074 	ldr	r3, [fp, #-116]
 6c4:	e2433001 	sub	r3, r3, #1	; 0x1
 6c8:	e50b3074 	str	r3, [fp, #-116]
 6cc:	eafffff2 	b	69c <out_num+0x10c>
 6d0:	e51b3018 	ldr	r3, [fp, #-24]
 6d4:	e3530000 	cmp	r3, #0	; 0x0
 6d8:	aa000005 	bge	6f4 <out_num+0x164>
 6dc:	e51b306c 	ldr	r3, [fp, #-108]
 6e0:	e2433001 	sub	r3, r3, #1	; 0x1
 6e4:	e1a02003 	mov	r2, r3
 6e8:	e50b206c 	str	r2, [fp, #-108]
 6ec:	e3a0302d 	mov	r3, #45	; 0x2d
 6f0:	e5c23000 	strb	r3, [r2]
 6f4:	e51b006c 	ldr	r0, [fp, #-108]
 6f8:	ebfffea3 	bl	18c <puts>
 6fc:	e1a03000 	mov	r3, r0
 700:	e1a00003 	mov	r0, r3
 704:	e24bd014 	sub	sp, fp, #20	; 0x14
 708:	e89da830 	ldmia	sp, {r4, r5, fp, sp, pc}
 70c:	00000cff 	streqd	r0, [r0], -pc

00000710 <my_printf>:
 710:	e1a0c00d 	mov	ip, sp
 714:	e92dd800 	stmdb	sp!, {fp, ip, lr, pc}
 718:	e24cb004 	sub	fp, ip, #4	; 0x4
 71c:	e24dd010 	sub	sp, sp, #16	; 0x10
 720:	e50b0010 	str	r0, [fp, #-16]
 724:	e50b1014 	str	r1, [fp, #-20]
 728:	e3a03020 	mov	r3, #32	; 0x20
 72c:	e54b3015 	strb	r3, [fp, #-21]
 730:	e3a03000 	mov	r3, #0	; 0x0
 734:	e50b301c 	str	r3, [fp, #-28]
 738:	e51b3010 	ldr	r3, [fp, #-16]
 73c:	e5d33000 	ldrb	r3, [r3]
 740:	e3530000 	cmp	r3, #0	; 0x0
 744:	0a000088 	beq	96c <.text+0x96c>
 748:	e51b3010 	ldr	r3, [fp, #-16]
 74c:	e5d33000 	ldrb	r3, [r3]
 750:	e3530025 	cmp	r3, #37	; 0x25
 754:	0a000004 	beq	76c <my_printf+0x5c>
 758:	e51b3010 	ldr	r3, [fp, #-16]
 75c:	e5d33000 	ldrb	r3, [r3]
 760:	e1a00003 	mov	r0, r3
 764:	ebfffe65 	bl	100 <putchar>
 768:	ea00007b 	b	95c <.text+0x95c>
 76c:	e51b3010 	ldr	r3, [fp, #-16]
 770:	e2833001 	add	r3, r3, #1	; 0x1
 774:	e50b3010 	str	r3, [fp, #-16]
 778:	e51b3010 	ldr	r3, [fp, #-16]
 77c:	e5d33000 	ldrb	r3, [r3]
 780:	e3530030 	cmp	r3, #48	; 0x30
 784:	1a000004 	bne	79c <my_printf+0x8c>
 788:	e3a03030 	mov	r3, #48	; 0x30
 78c:	e54b3015 	strb	r3, [fp, #-21]
 790:	e51b3010 	ldr	r3, [fp, #-16]
 794:	e2833001 	add	r3, r3, #1	; 0x1
 798:	e50b3010 	str	r3, [fp, #-16]
 79c:	e51b3010 	ldr	r3, [fp, #-16]
 7a0:	e5d33000 	ldrb	r3, [r3]
 7a4:	e353002f 	cmp	r3, #47	; 0x2f
 7a8:	9a000013 	bls	7fc <my_printf+0xec>
 7ac:	e51b3010 	ldr	r3, [fp, #-16]
 7b0:	e5d33000 	ldrb	r3, [r3]
 7b4:	e3530039 	cmp	r3, #57	; 0x39
 7b8:	8a00000f 	bhi	7fc <my_printf+0xec>
 7bc:	e51b201c 	ldr	r2, [fp, #-28]
 7c0:	e1a03002 	mov	r3, r2
 7c4:	e1a03103 	mov	r3, r3, lsl #2
 7c8:	e0833002 	add	r3, r3, r2
 7cc:	e1a03083 	mov	r3, r3, lsl #1
 7d0:	e50b301c 	str	r3, [fp, #-28]
 7d4:	e51b3010 	ldr	r3, [fp, #-16]
 7d8:	e5d32000 	ldrb	r2, [r3]
 7dc:	e51b301c 	ldr	r3, [fp, #-28]
 7e0:	e0823003 	add	r3, r2, r3
 7e4:	e2433030 	sub	r3, r3, #48	; 0x30
 7e8:	e50b301c 	str	r3, [fp, #-28]
 7ec:	e51b3010 	ldr	r3, [fp, #-16]
 7f0:	e2833001 	add	r3, r3, #1	; 0x1
 7f4:	e50b3010 	str	r3, [fp, #-16]
 7f8:	eaffffe7 	b	79c <my_printf+0x8c>
 7fc:	e51b3010 	ldr	r3, [fp, #-16]
 800:	e5d33000 	ldrb	r3, [r3]
 804:	e2433063 	sub	r3, r3, #99	; 0x63
 808:	e3530015 	cmp	r3, #21	; 0x15
 80c:	979ff103 	ldrls	pc, [pc, r3, lsl #2]
 810:	ea000049 	b	93c <.text+0x93c>
 814:	0000090c 	andeq	r0, r0, ip, lsl #18
 818:	0000086c 	andeq	r0, r0, ip, ror #16
 81c:	0000093c 	andeq	r0, r0, ip, lsr r9
 820:	0000093c 	andeq	r0, r0, ip, lsr r9
 824:	0000093c 	andeq	r0, r0, ip, lsr r9
 828:	0000093c 	andeq	r0, r0, ip, lsr r9
 82c:	0000093c 	andeq	r0, r0, ip, lsr r9
 830:	0000093c 	andeq	r0, r0, ip, lsr r9
 834:	0000093c 	andeq	r0, r0, ip, lsr r9
 838:	0000093c 	andeq	r0, r0, ip, lsr r9
 83c:	0000093c 	andeq	r0, r0, ip, lsr r9
 840:	0000093c 	andeq	r0, r0, ip, lsr r9
 844:	000008bc 	streqh	r0, [r0], -ip
 848:	0000093c 	andeq	r0, r0, ip, lsr r9
 84c:	0000093c 	andeq	r0, r0, ip, lsr r9
 850:	0000093c 	andeq	r0, r0, ip, lsr r9
 854:	00000924 	andeq	r0, r0, r4, lsr #18
 858:	0000093c 	andeq	r0, r0, ip, lsr r9
 85c:	00000894 	muleq	r0, r4, r8
 860:	0000093c 	andeq	r0, r0, ip, lsr r9
 864:	0000093c 	andeq	r0, r0, ip, lsr r9
 868:	000008e4 	andeq	r0, r0, r4, ror #17
 86c:	e51b3014 	ldr	r3, [fp, #-20]
 870:	e2833004 	add	r3, r3, #4	; 0x4
 874:	e50b3014 	str	r3, [fp, #-20]
 878:	e55b2015 	ldrb	r2, [fp, #-21]
 87c:	e5130004 	ldr	r0, [r3, #-4]
 880:	e1a01002 	mov	r1, r2
 884:	e51b201c 	ldr	r2, [fp, #-28]
 888:	e3a0300a 	mov	r3, #10	; 0xa
 88c:	ebffff3f 	bl	590 <out_num>
 890:	ea00002d 	b	94c <.text+0x94c>
 894:	e51b3014 	ldr	r3, [fp, #-20]
 898:	e2833004 	add	r3, r3, #4	; 0x4
 89c:	e50b3014 	str	r3, [fp, #-20]
 8a0:	e55b2015 	ldrb	r2, [fp, #-21]
 8a4:	e5130004 	ldr	r0, [r3, #-4]
 8a8:	e1a01002 	mov	r1, r2
 8ac:	e51b201c 	ldr	r2, [fp, #-28]
 8b0:	e3a0300a 	mov	r3, #10	; 0xa
 8b4:	ebffff35 	bl	590 <out_num>
 8b8:	ea000023 	b	94c <.text+0x94c>
 8bc:	e51b3014 	ldr	r3, [fp, #-20]
 8c0:	e2833004 	add	r3, r3, #4	; 0x4
 8c4:	e50b3014 	str	r3, [fp, #-20]
 8c8:	e55b2015 	ldrb	r2, [fp, #-21]
 8cc:	e5130004 	ldr	r0, [r3, #-4]
 8d0:	e1a01002 	mov	r1, r2
 8d4:	e51b201c 	ldr	r2, [fp, #-28]
 8d8:	e3a03008 	mov	r3, #8	; 0x8
 8dc:	ebffff2b 	bl	590 <out_num>
 8e0:	ea000019 	b	94c <.text+0x94c>
 8e4:	e51b3014 	ldr	r3, [fp, #-20]
 8e8:	e2833004 	add	r3, r3, #4	; 0x4
 8ec:	e50b3014 	str	r3, [fp, #-20]
 8f0:	e55b2015 	ldrb	r2, [fp, #-21]
 8f4:	e5130004 	ldr	r0, [r3, #-4]
 8f8:	e1a01002 	mov	r1, r2
 8fc:	e51b201c 	ldr	r2, [fp, #-28]
 900:	e3a03010 	mov	r3, #16	; 0x10
 904:	ebffff21 	bl	590 <out_num>
 908:	ea00000f 	b	94c <.text+0x94c>
 90c:	e51b3014 	ldr	r3, [fp, #-20]
 910:	e2833004 	add	r3, r3, #4	; 0x4
 914:	e50b3014 	str	r3, [fp, #-20]
 918:	e5130004 	ldr	r0, [r3, #-4]
 91c:	ebfffdf7 	bl	100 <putchar>
 920:	ea000009 	b	94c <.text+0x94c>
 924:	e51b3014 	ldr	r3, [fp, #-20]
 928:	e2833004 	add	r3, r3, #4	; 0x4
 92c:	e50b3014 	str	r3, [fp, #-20]
 930:	e5130004 	ldr	r0, [r3, #-4]
 934:	ebfffe14 	bl	18c <puts>
 938:	ea000003 	b	94c <.text+0x94c>
 93c:	e51b3010 	ldr	r3, [fp, #-16]
 940:	e5d33000 	ldrb	r3, [r3]
 944:	e1a00003 	mov	r0, r3
 948:	ebfffdec 	bl	100 <putchar>
 94c:	e3a03020 	mov	r3, #32	; 0x20
 950:	e54b3015 	strb	r3, [fp, #-21]
 954:	e3a03000 	mov	r3, #0	; 0x0
 958:	e50b301c 	str	r3, [fp, #-28]
 95c:	e51b3010 	ldr	r3, [fp, #-16]
 960:	e2833001 	add	r3, r3, #1	; 0x1
 964:	e50b3010 	str	r3, [fp, #-16]
 968:	eaffff72 	b	738 <my_printf+0x28>
 96c:	e24bd00c 	sub	sp, fp, #12	; 0xc
 970:	e89da800 	ldmia	sp, {fp, sp, pc}

00000974 <printf>:
 974:	e1a0c00d 	mov	ip, sp
 978:	e92d000f 	stmdb	sp!, {r0, r1, r2, r3}
 97c:	e92dd800 	stmdb	sp!, {fp, ip, lr, pc}
 980:	e24cb014 	sub	fp, ip, #20	; 0x14
 984:	e24dd004 	sub	sp, sp, #4	; 0x4
 988:	e28b3008 	add	r3, fp, #8	; 0x8
 98c:	e50b3010 	str	r3, [fp, #-16]
 990:	e59b0004 	ldr	r0, [fp, #4]
 994:	e1a01003 	mov	r1, r3
 998:	ebffff5c 	bl	710 <my_printf>
 99c:	e3a03000 	mov	r3, #0	; 0x0
 9a0:	e50b3010 	str	r3, [fp, #-16]
 9a4:	e3a03000 	mov	r3, #0	; 0x0
 9a8:	e1a00003 	mov	r0, r3
 9ac:	e24bd00c 	sub	sp, fp, #12	; 0xc
 9b0:	e89da800 	ldmia	sp, {fp, sp, pc}

000009b4 <printf_test>:
 9b4:	e1a0c00d 	mov	ip, sp
 9b8:	e92dd800 	stmdb	sp!, {fp, ip, lr, pc}
 9bc:	e24cb004 	sub	fp, ip, #4	; 0x4
 9c0:	e59f00bc 	ldr	r0, [pc, #188]	; a84 <.text+0xa84>
 9c4:	e3a01a1e 	mov	r1, #122880	; 0x1e000
 9c8:	e2811d09 	add	r1, r1, #576	; 0x240
 9cc:	ebffffe8 	bl	974 <printf>
 9d0:	e59f00b0 	ldr	r0, [pc, #176]	; a88 <.text+0xa88>
 9d4:	e3e01a1e 	mvn	r1, #122880	; 0x1e000
 9d8:	e2411f8f 	sub	r1, r1, #572	; 0x23c
 9dc:	e2411003 	sub	r1, r1, #3	; 0x3
 9e0:	e3a0207b 	mov	r2, #123	; 0x7b
 9e4:	e59f30a0 	ldr	r3, [pc, #160]	; a8c <.text+0xa8c>
 9e8:	ebffffe1 	bl	974 <printf>
 9ec:	e59f009c 	ldr	r0, [pc, #156]	; a90 <.text+0xa90>
 9f0:	e59f109c 	ldr	r1, [pc, #156]	; a94 <.text+0xa94>
 9f4:	ebffffde 	bl	974 <printf>
 9f8:	e59f0098 	ldr	r0, [pc, #152]	; a98 <.text+0xa98>
 9fc:	e59f1098 	ldr	r1, [pc, #152]	; a9c <.text+0xa9c>
 a00:	ebffffdb 	bl	974 <printf>
 a04:	e59f0094 	ldr	r0, [pc, #148]	; aa0 <.text+0xaa0>
 a08:	e3a01a1e 	mov	r1, #122880	; 0x1e000
 a0c:	e2811d09 	add	r1, r1, #576	; 0x240
 a10:	ebffffd7 	bl	974 <printf>
 a14:	e59f0088 	ldr	r0, [pc, #136]	; aa4 <.text+0xaa4>
 a18:	e3a01a1e 	mov	r1, #122880	; 0x1e000
 a1c:	e2811d09 	add	r1, r1, #576	; 0x240
 a20:	e3a02064 	mov	r2, #100	; 0x64
 a24:	ebffffd2 	bl	974 <printf>
 a28:	e59f0078 	ldr	r0, [pc, #120]	; aa8 <.text+0xaa8>
 a2c:	e3a01812 	mov	r1, #1179648	; 0x120000
 a30:	e2811dd1 	add	r1, r1, #13376	; 0x3440
 a34:	e2811016 	add	r1, r1, #22	; 0x16
 a38:	ebffffcd 	bl	974 <printf>
 a3c:	e59f0068 	ldr	r0, [pc, #104]	; aac <.text+0xaac>
 a40:	e3a01812 	mov	r1, #1179648	; 0x120000
 a44:	e2811dd1 	add	r1, r1, #13376	; 0x3440
 a48:	e2811016 	add	r1, r1, #22	; 0x16
 a4c:	ebffffc8 	bl	974 <printf>
 a50:	e59f0058 	ldr	r0, [pc, #88]	; ab0 <.text+0xab0>
 a54:	e3a01001 	mov	r1, #1	; 0x1
 a58:	ebffffc5 	bl	974 <printf>
 a5c:	e59f0050 	ldr	r0, [pc, #80]	; ab4 <.text+0xab4>
 a60:	e3a01001 	mov	r1, #1	; 0x1
 a64:	ebffffc2 	bl	974 <printf>
 a68:	e59f0048 	ldr	r0, [pc, #72]	; ab8 <.text+0xab8>
 a6c:	e3a01001 	mov	r1, #1	; 0x1
 a70:	ebffffbf 	bl	974 <printf>
 a74:	e59f0040 	ldr	r0, [pc, #64]	; abc <.text+0xabc>
 a78:	e3a01001 	mov	r1, #1	; 0x1
 a7c:	ebffffbc 	bl	974 <printf>
 a80:	e89da800 	ldmia	sp, {fp, sp, pc}
 a84:	00000b28 	andeq	r0, r0, r8, lsr #22
 a88:	00000b44 	andeq	r0, r0, r4, asr #22
 a8c:	00000b68 	andeq	r0, r0, r8, ror #22
 a90:	00000b78 	andeq	r0, r0, r8, ror fp
 a94:	56238472 	undefined
 a98:	00000b98 	muleq	r0, r8, fp
 a9c:	00000bb4 	streqh	r0, [r0], -r4
 aa0:	00000bbc 	streqh	r0, [r0], -ip
 aa4:	00000bdc 	ldreqd	r0, [r0], -ip
 aa8:	00000bfc 	streqd	r0, [r0], -ip
 aac:	00000c1c 	andeq	r0, r0, ip, lsl ip
 ab0:	00000c3c 	andeq	r0, r0, ip, lsr ip
 ab4:	00000c5c 	andeq	r0, r0, ip, asr ip
 ab8:	00000c7c 	andeq	r0, r0, ip, ror ip
 abc:	00000c9c 	muleq	r0, ip, ip

00000ac0 <main>:
 ac0:	e1a0c00d 	mov	ip, sp
 ac4:	e92dd800 	stmdb	sp!, {fp, ip, lr, pc}
 ac8:	e24cb004 	sub	fp, ip, #4	; 0x4
 acc:	e24dd004 	sub	sp, sp, #4	; 0x4
 ad0:	ebfffd67 	bl	74 <uart_init>
 ad4:	e59f0048 	ldr	r0, [pc, #72]	; b24 <.text+0xb24>
 ad8:	ebfffdab 	bl	18c <puts>
 adc:	ebffffb4 	bl	9b4 <printf_test>
 ae0:	ebfffd99 	bl	14c <getchar>
 ae4:	e1a03000 	mov	r3, r0
 ae8:	e54b300d 	strb	r3, [fp, #-13]
 aec:	e55b300d 	ldrb	r3, [fp, #-13]
 af0:	e353000a 	cmp	r3, #10	; 0xa
 af4:	1a000001 	bne	b00 <main+0x40>
 af8:	e3a0000d 	mov	r0, #13	; 0xd
 afc:	ebfffd7f 	bl	100 <putchar>
 b00:	e55b300d 	ldrb	r3, [fp, #-13]
 b04:	e353000d 	cmp	r3, #13	; 0xd
 b08:	1a000001 	bne	b14 <main+0x54>
 b0c:	e3a0000a 	mov	r0, #10	; 0xa
 b10:	ebfffd7a 	bl	100 <putchar>
 b14:	e55b300d 	ldrb	r3, [fp, #-13]
 b18:	e1a00003 	mov	r0, r3
 b1c:	ebfffd77 	bl	100 <putchar>
 b20:	eaffffee 	b	ae0 <main+0x20>
 b24:	00000cbc 	streqh	r0, [r0], -ip